target datalayout = "e-m:e-p270:32:32-p271:32:32-p272:64:64-i64:64-i128:128-f80:128-n8:16:32:64-S128"
target triple = "x86_64-pc-linux-gnu"

%"class.cv::saliency::MotionSaliencyBinWangApr2014" = type <{ %"class.cv::saliency::MotionSaliency.base", %"class.std::vector", %"class.cv::Mat", %"class.cv::Mat", %"class.cv::Mat", %"class.cv::Mat", i8, i8, [2 x i8], i32, i32, i32, i32, i32, float, i32, i32, i32, i32, i32, i8, [3 x i8], i32, i32, i32, i32, float, float, i32, i32, [4 x i8], %"class.cv::saliency::Saliency" }>
%"class.cv::saliency::MotionSaliency.base" = type { %"class.cv::Algorithm" }
%"class.cv::Algorithm" = type { ptr }
%"class.std::vector" = type { %"struct.std::_Vector_base" }
%"struct.std::_Vector_base" = type { %"struct.std::_Vector_base<cv::Ptr<cv::Mat>, std::allocator<cv::Ptr<cv::Mat>>>::_Vector_impl" }
%"struct.std::_Vector_base<cv::Ptr<cv::Mat>, std::allocator<cv::Ptr<cv::Mat>>>::_Vector_impl" = type { %"struct.std::_Vector_base<cv::Ptr<cv::Mat>, std::allocator<cv::Ptr<cv::Mat>>>::_Vector_impl_data" }
%"struct.std::_Vector_base<cv::Ptr<cv::Mat>, std::allocator<cv::Ptr<cv::Mat>>>::_Vector_impl_data" = type { ptr, ptr, ptr }
%"class.cv::Mat" = type { i32, i32, i32, i32, ptr, ptr, ptr, ptr, ptr, ptr, %"struct.cv::MatSize", %"struct.cv::MatStep" }
%"struct.cv::MatSize" = type { ptr }
%"struct.cv::MatStep" = type { ptr, [2 x i64] }
%"class.cv::saliency::Saliency" = type { %"class.cv::Algorithm", %"class.std::__cxx11::basic_string" }
%"class.std::__cxx11::basic_string" = type { %"struct.std::__cxx11::basic_string<char>::_Alloc_hider", i64, %union.anon }
%"struct.std::__cxx11::basic_string<char>::_Alloc_hider" = type { ptr }
%union.anon = type { i64, [8 x i8] }

; Function Attrs: inlinehint mustprogress nounwind uwtable
define linkonce_odr hidden noundef nonnull align 4 dereferenceable(4) ptr @_ZN2cv3Mat2atIfEERT_ii(ptr noundef nonnull align 8 dereferenceable(96) %0, i32 noundef %1, i32 noundef %2) #6 comdat align 2 {
  %4 = alloca ptr, align 8
  %5 = alloca i32, align 4
  %6 = alloca i32, align 4
  store ptr %0, ptr %4, align 8, !tbaa !67
  store i32 %1, ptr %5, align 4, !tbaa !8
  store i32 %2, ptr %6, align 4, !tbaa !8
  %7 = load ptr, ptr %4, align 8
  %8 = getelementptr inbounds nuw %"class.cv::Mat", ptr %7, i32 0, i32 4
  %9 = load ptr, ptr %8, align 8, !tbaa !101
  %10 = getelementptr inbounds nuw %"class.cv::Mat", ptr %7, i32 0, i32 11
  %11 = getelementptr inbounds nuw %"struct.cv::MatStep", ptr %10, i32 0, i32 0
  %12 = load ptr, ptr %11, align 8, !tbaa !102
  %13 = getelementptr inbounds i64, ptr %12, i64 0
  %14 = load i64, ptr %13, align 8, !tbaa !77
  %15 = load i32, ptr %5, align 4, !tbaa !8
  %16 = sext i32 %15 to i64
  %17 = mul i64 %14, %16
  %18 = getelementptr inbounds nuw i8, ptr %9, i64 %17
  %19 = load i32, ptr %6, align 4, !tbaa !8
  %20 = sext i32 %19 to i64
  %21 = getelementptr inbounds float, ptr %18, i64 %20
  ret ptr %21
}

; Function Attrs: inlinehint mustprogress nounwind uwtable
define linkonce_odr hidden noundef nonnull align 1 dereferenceable(1) ptr @_ZN2cv3Mat2atIhEERT_ii(ptr noundef nonnull align 8 dereferenceable(96) %0, i32 noundef %1, i32 noundef %2) #6 comdat align 2 {
  %4 = alloca ptr, align 8
  %5 = alloca i32, align 4
  %6 = alloca i32, align 4
  store ptr %0, ptr %4, align 8, !tbaa !67
  store i32 %1, ptr %5, align 4, !tbaa !8
  store i32 %2, ptr %6, align 4, !tbaa !8
  %7 = load ptr, ptr %4, align 8
  %8 = getelementptr inbounds nuw %"class.cv::Mat", ptr %7, i32 0, i32 4
  %9 = load ptr, ptr %8, align 8, !tbaa !101
  %10 = getelementptr inbounds nuw %"class.cv::Mat", ptr %7, i32 0, i32 11
  %11 = getelementptr inbounds nuw %"struct.cv::MatStep", ptr %10, i32 0, i32 0
  %12 = load ptr, ptr %11, align 8, !tbaa !102
  %13 = getelementptr inbounds i64, ptr %12, i64 0
  %14 = load i64, ptr %13, align 8, !tbaa !77
  %15 = load i32, ptr %5, align 4, !tbaa !8
  %16 = sext i32 %15 to i64
  %17 = mul i64 %14, %16
  %18 = getelementptr inbounds nuw i8, ptr %9, i64 %17
  %19 = load i32, ptr %6, align 4, !tbaa !8
  %20 = sext i32 %19 to i64
  %21 = getelementptr inbounds i8, ptr %18, i64 %20
  ret ptr %21
}

; Function Attrs: mustprogress uwtable
define noundef zeroext i1 @_ZN2cv8saliency28MotionSaliencyBinWangApr201427decisionThresholdAdaptationEv(ptr noundef nonnull align 8 dereferenceable(500) %0) #5 align 2 {
  %2 = alloca ptr, align 8
  %3 = alloca i32, align 4
  %4 = alloca i32, align 4
  %5 = alloca i32, align 4
  store ptr %0, ptr %2, align 8, !tbaa !3
  %6 = load ptr, ptr %2, align 8
  call void @llvm.lifetime.start.p0(i64 4, ptr %3) #3
  store i32 0, ptr %3, align 4, !tbaa !8
  br label %7

7:                                                ; preds = %92, %1
  %8 = load i32, ptr %3, align 4, !tbaa !8
  %9 = getelementptr inbounds nuw %"class.cv::saliency::MotionSaliencyBinWangApr2014", ptr %6, i32 0, i32 4
  %10 = getelementptr inbounds nuw %"class.cv::Mat", ptr %9, i32 0, i32 2
  %11 = load i32, ptr %10, align 8, !tbaa !156
  %12 = icmp slt i32 %8, %11
  br i1 %12, label %14, label %13

13:                                               ; preds = %7
  store i32 2, ptr %4, align 4
  call void @llvm.lifetime.end.p0(i64 4, ptr %3) #3
  br label %95

14:                                               ; preds = %7
  call void @llvm.lifetime.start.p0(i64 4, ptr %5) #3
  store i32 0, ptr %5, align 4, !tbaa !8
  br label %15

15:                                               ; preds = %88, %14
  %16 = load i32, ptr %5, align 4, !tbaa !8
  %17 = getelementptr inbounds nuw %"class.cv::saliency::MotionSaliencyBinWangApr2014", ptr %6, i32 0, i32 4
  %18 = getelementptr inbounds nuw %"class.cv::Mat", ptr %17, i32 0, i32 3
  %19 = load i32, ptr %18, align 4, !tbaa !157
  %20 = icmp slt i32 %16, %19
  br i1 %20, label %22, label %21

21:                                               ; preds = %15
  store i32 5, ptr %4, align 4
  call void @llvm.lifetime.end.p0(i64 4, ptr %5) #3
  br label %91

22:                                               ; preds = %15
  %23 = getelementptr inbounds nuw %"class.cv::saliency::MotionSaliencyBinWangApr2014", ptr %6, i32 0, i32 4
  %24 = load i32, ptr %3, align 4, !tbaa !8
  %25 = load i32, ptr %5, align 4, !tbaa !8
  %26 = call noundef nonnull align 1 dereferenceable(1) ptr @_ZN2cv3Mat2atIhEERT_ii(ptr noundef nonnull align 8 dereferenceable(96) %23, i32 noundef %24, i32 noundef %25)
  %27 = load i8, ptr %26, align 1, !tbaa !91
  %28 = zext i8 %27 to i32
  %29 = getelementptr inbounds nuw %"class.cv::saliency::MotionSaliencyBinWangApr2014", ptr %6, i32 0, i32 24
  %30 = load i32, ptr %29, align 4, !tbaa !46
  %31 = icmp sgt i32 %28, %30
  br i1 %31, label %32, label %54

32:                                               ; preds = %22
  %33 = getelementptr inbounds nuw %"class.cv::saliency::MotionSaliencyBinWangApr2014", ptr %6, i32 0, i32 3
  %34 = load i32, ptr %3, align 4, !tbaa !8
  %35 = load i32, ptr %5, align 4, !tbaa !8
  %36 = call noundef nonnull align 4 dereferenceable(4) ptr @_ZN2cv3Mat2atIfEERT_ii(ptr noundef nonnull align 8 dereferenceable(96) %33, i32 noundef %34, i32 noundef %35)
  %37 = load float, ptr %36, align 4, !tbaa !92
  %38 = getelementptr inbounds nuw %"class.cv::saliency::MotionSaliencyBinWangApr2014", ptr %6, i32 0, i32 26
  %39 = load float, ptr %38, align 4, !tbaa !48
  %40 = fadd float %37, %39
  %41 = getelementptr inbounds nuw %"class.cv::saliency::MotionSaliencyBinWangApr2014", ptr %6, i32 0, i32 29
  %42 = load i32, ptr %41, align 8, !tbaa !51
  %43 = sitofp i32 %42 to float
  %44 = fcmp olt float %40, %43
  br i1 %44, label %45, label %54

45:                                               ; preds = %32
  %46 = getelementptr inbounds nuw %"class.cv::saliency::MotionSaliencyBinWangApr2014", ptr %6, i32 0, i32 26
  %47 = load float, ptr %46, align 4, !tbaa !48
  %48 = getelementptr inbounds nuw %"class.cv::saliency::MotionSaliencyBinWangApr2014", ptr %6, i32 0, i32 3
  %49 = load i32, ptr %3, align 4, !tbaa !8
  %50 = load i32, ptr %5, align 4, !tbaa !8
  %51 = call noundef nonnull align 4 dereferenceable(4) ptr @_ZN2cv3Mat2atIfEERT_ii(ptr noundef nonnull align 8 dereferenceable(96) %48, i32 noundef %49, i32 noundef %50)
  %52 = load float, ptr %51, align 4, !tbaa !92
  %53 = fadd float %52, %47
  store float %53, ptr %51, align 4, !tbaa !92
  br label %87

54:                                               ; preds = %32, %22
  %55 = getelementptr inbounds nuw %"class.cv::saliency::MotionSaliencyBinWangApr2014", ptr %6, i32 0, i32 4
  %56 = load i32, ptr %3, align 4, !tbaa !8
  %57 = load i32, ptr %5, align 4, !tbaa !8
  %58 = call noundef nonnull align 1 dereferenceable(1) ptr @_ZN2cv3Mat2atIhEERT_ii(ptr noundef nonnull align 8 dereferenceable(96) %55, i32 noundef %56, i32 noundef %57)
  %59 = load i8, ptr %58, align 1, !tbaa !91
  %60 = zext i8 %59 to i32
  %61 = getelementptr inbounds nuw %"class.cv::saliency::MotionSaliencyBinWangApr2014", ptr %6, i32 0, i32 25
  %62 = load i32, ptr %61, align 8, !tbaa !47
  %63 = icmp slt i32 %60, %62
  br i1 %63, label %64, label %86

64:                                               ; preds = %54
  %65 = getelementptr inbounds nuw %"class.cv::saliency::MotionSaliencyBinWangApr2014", ptr %6, i32 0, i32 3
  %66 = load i32, ptr %3, align 4, !tbaa !8
  %67 = load i32, ptr %5, align 4, !tbaa !8
  %68 = call noundef nonnull align 4 dereferenceable(4) ptr @_ZN2cv3Mat2atIfEERT_ii(ptr noundef nonnull align 8 dereferenceable(96) %65, i32 noundef %66, i32 noundef %67)
  %69 = load float, ptr %68, align 4, !tbaa !92
  %70 = getelementptr inbounds nuw %"class.cv::saliency::MotionSaliencyBinWangApr2014", ptr %6, i32 0, i32 27
  %71 = load float, ptr %70, align 8, !tbaa !49
  %72 = fsub float %69, %71
  %73 = getelementptr inbounds nuw %"class.cv::saliency::MotionSaliencyBinWangApr2014", ptr %6, i32 0, i32 28
  %74 = load i32, ptr %73, align 4, !tbaa !50
  %75 = sitofp i32 %74 to float
  %76 = fcmp ogt float %72, %75
  br i1 %76, label %77, label %86

77:                                               ; preds = %64
  %78 = getelementptr inbounds nuw %"class.cv::saliency::MotionSaliencyBinWangApr2014", ptr %6, i32 0, i32 27
  %79 = load float, ptr %78, align 8, !tbaa !49
  %80 = getelementptr inbounds nuw %"class.cv::saliency::MotionSaliencyBinWangApr2014", ptr %6, i32 0, i32 3
  %81 = load i32, ptr %3, align 4, !tbaa !8
  %82 = load i32, ptr %5, align 4, !tbaa !8
  %83 = call noundef nonnull align 4 dereferenceable(4) ptr @_ZN2cv3Mat2atIfEERT_ii(ptr noundef nonnull align 8 dereferenceable(96) %80, i32 noundef %81, i32 noundef %82)
  %84 = load float, ptr %83, align 4, !tbaa !92
  %85 = fsub float %84, %79
  store float %85, ptr %83, align 4, !tbaa !92
  br label %86

86:                                               ; preds = %77, %64, %54
  br label %87

87:                                               ; preds = %86, %45
  br label %88

88:                                               ; preds = %87
  %89 = load i32, ptr %5, align 4, !tbaa !8
  %90 = add nsw i32 %89, 1
  store i32 %90, ptr %5, align 4, !tbaa !8
  br label %15, !llvm.loop !158

91:                                               ; preds = %21
  br label %92

92:                                               ; preds = %91
  %93 = load i32, ptr %3, align 4, !tbaa !8
  %94 = add nsw i32 %93, 1
  store i32 %94, ptr %3, align 4, !tbaa !8
  br label %7, !llvm.loop !159

95:                                               ; preds = %13
  ret i1 true
}