; Function Attrs: mustprogress nofree norecurse nosync nounwind memory(readwrite, inaccessiblemem: none) uwtable
define noundef zeroext i1 @_ZN2cv8saliency28MotionSaliencyBinWangApr201427decisionThresholdAdaptationEv(ptr noundef nonnull readonly align 8 captures(none) dereferenceable(500) %0) local_unnamed_addr #11 align 2 {
  %2 = getelementptr inbounds nuw i8, ptr %0, i64 232
  %3 = load i32, ptr %2, align 8, !tbaa !122
  %4 = icmp sgt i32 %3, 0
  br i1 %4, label %.preheader.lr.ph, label %._crit_edge19

.preheader.lr.ph:                                 ; preds = %1
  %5 = getelementptr inbounds nuw i8, ptr %0, i64 236
  %6 = load i32, ptr %5, align 4, !tbaa !123
  %7 = icmp sgt i32 %6, 0
  %8 = getelementptr inbounds nuw i8, ptr %0, i64 240
  %9 = load ptr, ptr %8, align 8
  %10 = getelementptr inbounds nuw i8, ptr %0, i64 476
  %11 = load i32, ptr %10, align 4
  %12 = getelementptr inbounds nuw i8, ptr %0, i64 144
  %13 = getelementptr inbounds nuw i8, ptr %0, i64 200
  %14 = getelementptr inbounds nuw i8, ptr %0, i64 484
  %15 = getelementptr inbounds nuw i8, ptr %0, i64 496
  %16 = getelementptr inbounds nuw i8, ptr %0, i64 480
  %17 = getelementptr inbounds nuw i8, ptr %0, i64 488
  %18 = getelementptr inbounds nuw i8, ptr %0, i64 492
  br i1 %7, label %.preheader.lr.ph.split.us, label %._crit_edge19

.preheader.lr.ph.split.us:                        ; preds = %.preheader.lr.ph
  %19 = getelementptr inbounds nuw i8, ptr %0, i64 296
  %20 = load ptr, ptr %19, align 8
  %21 = load i64, ptr %20, align 8, !tbaa !82
  %wide.trip.count25 = zext nneg i32 %3 to i64
  %wide.trip.count = zext nneg i32 %6 to i64
  br label %.preheader.us

.preheader.us:                                    ; preds = %._crit_edge.us, %.preheader.lr.ph.split.us
  %indvars.iv22 = phi i64 [ %indvars.iv.next23, %._crit_edge.us ], [ 0, %.preheader.lr.ph.split.us ]
  %22 = mul i64 %21, %indvars.iv22
  %23 = getelementptr inbounds nuw i8, ptr %9, i64 %22
  %24 = load ptr, ptr %12, align 8
  %25 = load ptr, ptr %13, align 8
  %26 = load i32, ptr %15, align 8
  %27 = sitofp i32 %26 to float
  %28 = load i32, ptr %16, align 8
  %29 = load i32, ptr %18, align 4
  %30 = sitofp i32 %29 to float
  br label %31

31:                                               ; preds = %.preheader.us, %58
  %indvars.iv = phi i64 [ 0, %.preheader.us ], [ %indvars.iv.next, %58 ]
  %32 = getelementptr inbounds nuw i8, ptr %23, i64 %indvars.iv
  %33 = load i8, ptr %32, align 1, !tbaa !59
  %34 = zext i8 %33 to i32
  %35 = icmp slt i32 %11, %34
  br i1 %35, label %36, label %45

36:                                               ; preds = %31
  %37 = load i64, ptr %25, align 8, !tbaa !82
  %38 = mul i64 %37, %indvars.iv22
  %39 = getelementptr inbounds nuw i8, ptr %24, i64 %38
  %40 = getelementptr inbounds nuw float, ptr %39, i64 %indvars.iv
  %41 = load float, ptr %40, align 4, !tbaa !85
  %42 = load float, ptr %14, align 4, !tbaa !43
  %43 = fadd float %41, %42
  %44 = fcmp olt float %43, %27
  br i1 %44, label %57, label %45

45:                                               ; preds = %36, %31
  %46 = icmp sgt i32 %28, %34
  br i1 %46, label %47, label %58

47:                                               ; preds = %45
  %48 = load i64, ptr %25, align 8, !tbaa !82
  %49 = mul i64 %48, %indvars.iv22
  %50 = getelementptr inbounds nuw i8, ptr %24, i64 %49
  %51 = getelementptr inbounds nuw float, ptr %50, i64 %indvars.iv
  %52 = load float, ptr %51, align 4, !tbaa !85
  %53 = load float, ptr %17, align 8, !tbaa !44
  %54 = fsub float %52, %53
  %55 = fcmp ogt float %54, %30
  br i1 %55, label %56, label %58

56:                                               ; preds = %47
  store float %54, ptr %51, align 4, !tbaa !85
  br label %58

57:                                               ; preds = %36
  store float %43, ptr %40, align 4, !tbaa !85
  br label %58

58:                                               ; preds = %57, %56, %47, %45
  %indvars.iv.next = add nuw nsw i64 %indvars.iv, 1
  %exitcond.not = icmp eq i64 %indvars.iv.next, %wide.trip.count
  br i1 %exitcond.not, label %._crit_edge.us, label %31, !llvm.loop !124

._crit_edge.us:                                   ; preds = %58
  %indvars.iv.next23 = add nuw nsw i64 %indvars.iv22, 1
  %exitcond26.not = icmp eq i64 %indvars.iv.next23, %wide.trip.count25
  br i1 %exitcond26.not, label %._crit_edge19, label %.preheader.us, !llvm.loop !125

._crit_edge19:                                    ; preds = %._crit_edge.us, %.preheader.lr.ph, %1
  ret i1 true
}